; Function Attrs: cold nounwind optsize uwtable
define internal void @uninit(ptr noundef readonly captures(none) %0) #0 {
  %2 = getelementptr inbounds nuw i8, ptr %0, i64 72
  %3 = load ptr, ptr %2, align 8, !tbaa !4
  %4 = getelementptr inbounds nuw i8, ptr %3, i64 72
  tail call void @av_frame_free(ptr noundef nonnull %4) #10
  %5 = getelementptr inbounds nuw i8, ptr %3, i64 80
  %6 = load ptr, ptr %5, align 8, !tbaa !29
  tail call void @av_expr_free(ptr noundef %6) #10
  %7 = getelementptr inbounds nuw i8, ptr %3, i64 96
  tail call void @av_freep(ptr noundef nonnull %7) #10
  %8 = getelementptr inbounds nuw i8, ptr %3, i64 104
  tail call void @av_freep(ptr noundef nonnull %8) #10
  %9 = getelementptr inbounds nuw i8, ptr %3, i64 112
  tail call void @av_freep(ptr noundef nonnull %9) #10
  %10 = getelementptr inbounds nuw i8, ptr %3, i64 144
  tail call void @av_freep(ptr noundef nonnull %10) #10
  %11 = getelementptr inbounds nuw i8, ptr %3, i64 152
  tail call void @av_freep(ptr noundef nonnull %11) #10
  ret void
}